; Function Attrs: mustprogress uwtable
define noundef nonnull align 8 dereferenceable(44) ptr @_ZN32pxrInternal_v0_24__pxrReserved__18PcpPrimIndex_Graph17_GetWriteableNodeERKNS_10PcpNodeRefE(ptr nocapture noundef nonnull align 8 dereferenceable(57) %0, ptr nocapture noundef nonnull readonly align 8 dereferenceable(16) %1) local_unnamed_addr #0 align 2 {
  %3 = alloca %"class.pxrInternal_v0_24__pxrReserved__::TfCallContext", align 8
  %4 = getelementptr inbounds nuw i8, ptr %1, i64 8
  %5 = load i64, ptr %4, align 8
  %6 = getelementptr inbounds nuw i8, ptr %0, i64 16
  %7 = load ptr, ptr %6, align 8
  %8 = getelementptr inbounds nuw i8, ptr %7, i64 8
  %9 = load ptr, ptr %8, align 8
  %10 = load ptr, ptr %7, align 8
  %11 = ptrtoint ptr %9 to i64
  %12 = ptrtoint ptr %10 to i64
  %13 = sub i64 %11, %12
  %14 = sdiv exact i64 %13, 48
  %15 = icmp ult i64 %5, %14
  br i1 %15, label %22, label %16

16:                                               ; preds = %2
  store ptr @.str, ptr %3, align 8
  %17 = getelementptr inbounds nuw i8, ptr %3, i64 8
  store ptr @__func__._ZN32pxrInternal_v0_24__pxrReserved__18PcpPrimIndex_Graph17_GetWriteableNodeEm, ptr %17, align 8
  %18 = getelementptr inbounds nuw i8, ptr %3, i64 16
  store i64 753, ptr %18, align 8
  %19 = getelementptr inbounds nuw i8, ptr %3, i64 24
  store ptr @__PRETTY_FUNCTION__._ZN32pxrInternal_v0_24__pxrReserved__18PcpPrimIndex_Graph17_GetWriteableNodeERKNS_10PcpNodeRefE, ptr %19, align 8
  %20 = getelementptr inbounds nuw i8, ptr %3, i64 32
  store i8 0, ptr %20, align 8
  %21 = call noundef zeroext i1 @_ZN32pxrInternal_v0_24__pxrReserved__21Tf_FailedVerifyHelperERKNS_13TfCallContextEPKcS4_(ptr noundef nonnull align 8 dereferenceable(33) %3, ptr noundef nonnull @.str.31, ptr noundef null)
  br label %22

22:                                               ; preds = %2, %16
  call void @_ZN32pxrInternal_v0_24__pxrReserved__18PcpPrimIndex_Graph21_DetachSharedNodePoolEv(ptr noundef nonnull align 8 dereferenceable(57) %0)
  %23 = load ptr, ptr %6, align 8
  %24 = load ptr, ptr %23, align 8
  %25 = getelementptr inbounds %"struct.pxrInternal_v0_24__pxrReserved__::PcpPrimIndex_Graph::_Node", ptr %24, i64 %5
  ret ptr %25
}